; Function Attrs: nounwind uwtable
define internal fastcc zeroext i1 @_equalOnConflictClause(ptr noundef nonnull readonly captures(none) %0, ptr noundef nonnull readonly captures(none) %1) unnamed_addr #0 {
  %3 = getelementptr inbounds nuw i8, ptr %0, i64 4
  %4 = load i32, ptr %3, align 4
  %5 = getelementptr inbounds nuw i8, ptr %1, i64 4
  %6 = load i32, ptr %5, align 4
  %.not = icmp eq i32 %4, %6
  br i1 %.not, label %7, label %25

7:                                                ; preds = %2
  %8 = getelementptr inbounds nuw i8, ptr %0, i64 8
  %9 = load ptr, ptr %8, align 8
  %10 = getelementptr inbounds nuw i8, ptr %1, i64 8
  %11 = load ptr, ptr %10, align 8
  %12 = tail call zeroext i1 @equal(ptr noundef %9, ptr noundef %11)
  br i1 %12, label %13, label %25

13:                                               ; preds = %7
  %14 = getelementptr inbounds nuw i8, ptr %0, i64 16
  %15 = load ptr, ptr %14, align 8
  %16 = getelementptr inbounds nuw i8, ptr %1, i64 16
  %17 = load ptr, ptr %16, align 8
  %18 = tail call zeroext i1 @equal(ptr noundef %15, ptr noundef %17)
  br i1 %18, label %19, label %25

19:                                               ; preds = %13
  %20 = getelementptr inbounds nuw i8, ptr %0, i64 24
  %21 = load ptr, ptr %20, align 8
  %22 = getelementptr inbounds nuw i8, ptr %1, i64 24
  %23 = load ptr, ptr %22, align 8
  %24 = tail call zeroext i1 @equal(ptr noundef %21, ptr noundef %23)
  br label %25

25:                                               ; preds = %19, %13, %7, %2
  %.0 = phi i1 [ false, %2 ], [ false, %7 ], [ false, %13 ], [ %24, %19 ]
  ret i1 %.0
}